target datalayout = "e-m:e-p270:32:32-p271:32:32-p272:64:64-i64:64-i128:128-f80:128-n8:16:32:64-S128"
target triple = "x86_64-pc-linux-gnu"

%struct.H5O_linfo_t = type { i8, i8, i64, i64, i64, i64, i64 }
%struct.H5G_bt2_ud_common_t = type { ptr, ptr, ptr, i32, i64, ptr, ptr }
%struct.H5G_bt2_ud_rm_t = type { %struct.H5G_bt2_ud_common_t, i8, i64, ptr, i8 }

@.str = private unnamed_addr constant [102 x i8] c"generated/home/dtcxzyw/WorkSpace/Projects/compilers/llvm-opt-benchmark/bench/hdf5/hdf5/src/H5Gdense.c\00", align 1
@H5E_SYM_g = external global i64, align 8
@H5E_CLOSEERROR_g = external global i64, align 8
@.str.8 = private unnamed_addr constant [25 x i8] c"can't close fractal heap\00", align 1
@H5E_CANTOPENOBJ_g = external global i64, align 8
@.str.15 = private unnamed_addr constant [28 x i8] c"unable to open fractal heap\00", align 1
@__func__.H5G__dense_delete = private unnamed_addr constant [18 x i8] c"H5G__dense_delete\00", align 1
@H5E_CANTDELETE_g = external global i64, align 8
@.str.38 = private unnamed_addr constant [42 x i8] c"unable to delete v2 B-tree for name index\00", align 1
@.str.39 = private unnamed_addr constant [52 x i8] c"unable to delete v2 B-tree for creation order index\00", align 1
@.str.40 = private unnamed_addr constant [30 x i8] c"unable to delete fractal heap\00", align 1

; Function Attrs: nounwind uwtable
define i32 @H5G__dense_delete(ptr noundef %0, ptr noundef %1, i1 noundef zeroext %2) #0 {
  %4 = alloca ptr, align 8
  %5 = alloca ptr, align 8
  %6 = alloca i8, align 1
  %7 = alloca i32, align 4
  %8 = alloca i8, align 1
  %9 = alloca ptr, align 8
  %10 = alloca %struct.H5G_bt2_ud_rm_t, align 8
  store ptr %0, ptr %4, align 8
  store ptr %1, ptr %5, align 8
  %11 = zext i1 %2 to i8
  store i8 %11, ptr %6, align 1
  store i32 0, ptr %7, align 4
  store i8 0, ptr %8, align 1
  %12 = load i8, ptr %6, align 1
  %13 = trunc i8 %12 to i1
  br i1 %13, label %14, label %99

14:                                               ; preds = %3
  store ptr null, ptr %9, align 8
  %15 = load ptr, ptr %4, align 8
  %16 = load ptr, ptr %5, align 8
  %17 = getelementptr inbounds %struct.H5O_linfo_t, ptr %16, i32 0, i32 5
  %18 = load i64, ptr %17, align 8
  %19 = call ptr @H5HF_open(ptr noundef %15, i64 noundef %18)
  store ptr %19, ptr %9, align 8
  %20 = icmp eq ptr null, %19
  br i1 %20, label %21, label %36

21:                                               ; preds = %14
  br label %22

22:                                               ; preds = %21
  br label %23

23:                                               ; preds = %22
  br label %24

24:                                               ; preds = %23
  %25 = load i64, ptr @H5E_SYM_g, align 8
  %26 = load i64, ptr @H5E_CANTOPENOBJ_g, align 8
  %27 = call i32 (ptr, ptr, i32, i64, i64, ptr, ...) @H5E_printf_stack(ptr noundef @.str, ptr noundef @__func__.H5G__dense_delete, i32 noundef 1599, i64 noundef %25, i64 noundef %26, ptr noundef @.str.15)
  br label %28

28:                                               ; preds = %24
  store i8 1, ptr %8, align 1
  %29 = load i8, ptr %8, align 1
  %30 = trunc i8 %29 to i1
  %31 = zext i1 %30 to i8
  store i8 %31, ptr %8, align 1
  br label %32

32:                                               ; preds = %28
  br label %33

33:                                               ; preds = %32
  store i32 -1, ptr %7, align 4
  br label %180

34:                                               ; No predecessors!
  br label %35

35:                                               ; preds = %34
  br label %36

36:                                               ; preds = %35, %14
  %37 = load ptr, ptr %4, align 8
  %38 = getelementptr inbounds %struct.H5G_bt2_ud_rm_t, ptr %10, i32 0, i32 0
  %39 = getelementptr inbounds %struct.H5G_bt2_ud_common_t, ptr %38, i32 0, i32 0
  store ptr %37, ptr %39, align 8
  %40 = load ptr, ptr %9, align 8
  %41 = getelementptr inbounds %struct.H5G_bt2_ud_rm_t, ptr %10, i32 0, i32 0
  %42 = getelementptr inbounds %struct.H5G_bt2_ud_common_t, ptr %41, i32 0, i32 1
  store ptr %40, ptr %42, align 8
  %43 = getelementptr inbounds %struct.H5G_bt2_ud_rm_t, ptr %10, i32 0, i32 0
  %44 = getelementptr inbounds %struct.H5G_bt2_ud_common_t, ptr %43, i32 0, i32 2
  store ptr null, ptr %44, align 8
  %45 = getelementptr inbounds %struct.H5G_bt2_ud_rm_t, ptr %10, i32 0, i32 0
  %46 = getelementptr inbounds %struct.H5G_bt2_ud_common_t, ptr %45, i32 0, i32 3
  store i32 0, ptr %46, align 8
  %47 = getelementptr inbounds %struct.H5G_bt2_ud_rm_t, ptr %10, i32 0, i32 0
  %48 = getelementptr inbounds %struct.H5G_bt2_ud_common_t, ptr %47, i32 0, i32 5
  store ptr null, ptr %48, align 8
  %49 = getelementptr inbounds %struct.H5G_bt2_ud_rm_t, ptr %10, i32 0, i32 0
  %50 = getelementptr inbounds %struct.H5G_bt2_ud_common_t, ptr %49, i32 0, i32 6
  store ptr null, ptr %50, align 8
  %51 = getelementptr inbounds %struct.H5G_bt2_ud_rm_t, ptr %10, i32 0, i32 1
  store i8 0, ptr %51, align 8
  %52 = load ptr, ptr %5, align 8
  %53 = getelementptr inbounds %struct.H5O_linfo_t, ptr %52, i32 0, i32 3
  %54 = load i64, ptr %53, align 8
  %55 = getelementptr inbounds %struct.H5G_bt2_ud_rm_t, ptr %10, i32 0, i32 2
  store i64 %54, ptr %55, align 8
  %56 = getelementptr inbounds %struct.H5G_bt2_ud_rm_t, ptr %10, i32 0, i32 3
  store ptr null, ptr %56, align 8
  %57 = getelementptr inbounds %struct.H5G_bt2_ud_rm_t, ptr %10, i32 0, i32 4
  store i8 0, ptr %57, align 8
  %58 = load ptr, ptr %4, align 8
  %59 = load ptr, ptr %5, align 8
  %60 = getelementptr inbounds %struct.H5O_linfo_t, ptr %59, i32 0, i32 6
  %61 = load i64, ptr %60, align 8
  %62 = call i32 @H5B2_delete(ptr noundef %58, i64 noundef %61, ptr noundef null, ptr noundef @H5G__dense_remove_bt2_cb, ptr noundef %10)
  %63 = icmp slt i32 %62, 0
  br i1 %63, label %64, label %79

64:                                               ; preds = %36
  br label %65

65:                                               ; preds = %64
  br label %66

66:                                               ; preds = %65
  br label %67

67:                                               ; preds = %66
  %68 = load i64, ptr @H5E_SYM_g, align 8
  %69 = load i64, ptr @H5E_CANTDELETE_g, align 8
  %70 = call i32 (ptr, ptr, i32, i64, i64, ptr, ...) @H5E_printf_stack(ptr noundef @.str, ptr noundef @__func__.H5G__dense_delete, i32 noundef 1615, i64 noundef %68, i64 noundef %69, ptr noundef @.str.38)
  br label %71

71:                                               ; preds = %67
  store i8 1, ptr %8, align 1
  %72 = load i8, ptr %8, align 1
  %73 = trunc i8 %72 to i1
  %74 = zext i1 %73 to i8
  store i8 %74, ptr %8, align 1
  br label %75

75:                                               ; preds = %71
  br label %76

76:                                               ; preds = %75
  store i32 -1, ptr %7, align 4
  br label %180

77:                                               ; No predecessors!
  br label %78

78:                                               ; preds = %77
  br label %79

79:                                               ; preds = %78, %36
  %80 = load ptr, ptr %9, align 8
  %81 = call i32 @H5HF_close(ptr noundef %80)
  %82 = icmp slt i32 %81, 0
  br i1 %82, label %83, label %98

83:                                               ; preds = %79
  br label %84

84:                                               ; preds = %83
  br label %85

85:                                               ; preds = %84
  br label %86

86:                                               ; preds = %85
  %87 = load i64, ptr @H5E_SYM_g, align 8
  %88 = load i64, ptr @H5E_CLOSEERROR_g, align 8
  %89 = call i32 (ptr, ptr, i32, i64, i64, ptr, ...) @H5E_printf_stack(ptr noundef @.str, ptr noundef @__func__.H5G__dense_delete, i32 noundef 1619, i64 noundef %87, i64 noundef %88, ptr noundef @.str.8)
  br label %90

90:                                               ; preds = %86
  store i8 1, ptr %8, align 1
  %91 = load i8, ptr %8, align 1
  %92 = trunc i8 %91 to i1
  %93 = zext i1 %92 to i8
  store i8 %93, ptr %8, align 1
  br label %94

94:                                               ; preds = %90
  br label %95

95:                                               ; preds = %94
  store i32 -1, ptr %7, align 4
  br label %180

96:                                               ; No predecessors!
  br label %97

97:                                               ; preds = %96
  br label %98

98:                                               ; preds = %97, %79
  br label %122

99:                                               ; preds = %3
  %100 = load ptr, ptr %4, align 8
  %101 = load ptr, ptr %5, align 8
  %102 = getelementptr inbounds %struct.H5O_linfo_t, ptr %101, i32 0, i32 6
  %103 = load i64, ptr %102, align 8
  %104 = call i32 @H5B2_delete(ptr noundef %100, i64 noundef %103, ptr noundef null, ptr noundef null, ptr noundef null)
  %105 = icmp slt i32 %104, 0
  br i1 %105, label %106, label %121

106:                                              ; preds = %99
  br label %107

107:                                              ; preds = %106
  br label %108

108:                                              ; preds = %107
  br label %109

109:                                              ; preds = %108
  %110 = load i64, ptr @H5E_SYM_g, align 8
  %111 = load i64, ptr @H5E_CANTDELETE_g, align 8
  %112 = call i32 (ptr, ptr, i32, i64, i64, ptr, ...) @H5E_printf_stack(ptr noundef @.str, ptr noundef @__func__.H5G__dense_delete, i32 noundef 1624, i64 noundef %110, i64 noundef %111, ptr noundef @.str.38)
  br label %113

113:                                              ; preds = %109
  store i8 1, ptr %8, align 1
  %114 = load i8, ptr %8, align 1
  %115 = trunc i8 %114 to i1
  %116 = zext i1 %115 to i8
  store i8 %116, ptr %8, align 1
  br label %117

117:                                              ; preds = %113
  br label %118

118:                                              ; preds = %117
  store i32 -1, ptr %7, align 4
  br label %180

119:                                              ; No predecessors!
  br label %120

120:                                              ; preds = %119
  br label %121

121:                                              ; preds = %120, %99
  br label %122

122:                                              ; preds = %121, %98
  %123 = load ptr, ptr %5, align 8
  %124 = getelementptr inbounds %struct.H5O_linfo_t, ptr %123, i32 0, i32 6
  store i64 -1, ptr %124, align 8
  %125 = load ptr, ptr %5, align 8
  %126 = getelementptr inbounds %struct.H5O_linfo_t, ptr %125, i32 0, i32 1
  %127 = load i8, ptr %126, align 1
  %128 = trunc i8 %127 to i1
  br i1 %128, label %129, label %154

129:                                              ; preds = %122
  %130 = load ptr, ptr %4, align 8
  %131 = load ptr, ptr %5, align 8
  %132 = getelementptr inbounds %struct.H5O_linfo_t, ptr %131, i32 0, i32 3
  %133 = load i64, ptr %132, align 8
  %134 = call i32 @H5B2_delete(ptr noundef %130, i64 noundef %133, ptr noundef null, ptr noundef null, ptr noundef null)
  %135 = icmp slt i32 %134, 0
  br i1 %135, label %136, label %151

136:                                              ; preds = %129
  br label %137

137:                                              ; preds = %136
  br label %138

138:                                              ; preds = %137
  br label %139

139:                                              ; preds = %138
  %140 = load i64, ptr @H5E_SYM_g, align 8
  %141 = load i64, ptr @H5E_CANTDELETE_g, align 8
  %142 = call i32 (ptr, ptr, i32, i64, i64, ptr, ...) @H5E_printf_stack(ptr noundef @.str, ptr noundef @__func__.H5G__dense_delete, i32 noundef 1633, i64 noundef %140, i64 noundef %141, ptr noundef @.str.39)
  br label %143

143:                                              ; preds = %139
  store i8 1, ptr %8, align 1
  %144 = load i8, ptr %8, align 1
  %145 = trunc i8 %144 to i1
  %146 = zext i1 %145 to i8
  store i8 %146, ptr %8, align 1
  br label %147

147:                                              ; preds = %143
  br label %148

148:                                              ; preds = %147
  store i32 -1, ptr %7, align 4
  br label %180

149:                                              ; No predecessors!
  br label %150

150:                                              ; preds = %149
  br label %151

151:                                              ; preds = %150, %129
  %152 = load ptr, ptr %5, align 8
  %153 = getelementptr inbounds %struct.H5O_linfo_t, ptr %152, i32 0, i32 3
  store i64 -1, ptr %153, align 8
  br label %155

154:                                              ; preds = %122
  br label %155

155:                                              ; preds = %154, %151
  %156 = load ptr, ptr %4, align 8
  %157 = load ptr, ptr %5, align 8
  %158 = getelementptr inbounds %struct.H5O_linfo_t, ptr %157, i32 0, i32 5
  %159 = load i64, ptr %158, align 8
  %160 = call i32 @H5HF_delete(ptr noundef %156, i64 noundef %159)
  %161 = icmp slt i32 %160, 0
  br i1 %161, label %162, label %177

162:                                              ; preds = %155
  br label %163

163:                                              ; preds = %162
  br label %164

164:                                              ; preds = %163
  br label %165

165:                                              ; preds = %164
  %166 = load i64, ptr @H5E_SYM_g, align 8
  %167 = load i64, ptr @H5E_CANTDELETE_g, align 8
  %168 = call i32 (ptr, ptr, i32, i64, i64, ptr, ...) @H5E_printf_stack(ptr noundef @.str, ptr noundef @__func__.H5G__dense_delete, i32 noundef 1641, i64 noundef %166, i64 noundef %167, ptr noundef @.str.40)
  br label %169

169:                                              ; preds = %165
  store i8 1, ptr %8, align 1
  %170 = load i8, ptr %8, align 1
  %171 = trunc i8 %170 to i1
  %172 = zext i1 %171 to i8
  store i8 %172, ptr %8, align 1
  br label %173

173:                                              ; preds = %169
  br label %174

174:                                              ; preds = %173
  store i32 -1, ptr %7, align 4
  br label %180

175:                                              ; No predecessors!
  br label %176

176:                                              ; preds = %175
  br label %177

177:                                              ; preds = %176, %155
  %178 = load ptr, ptr %5, align 8
  %179 = getelementptr inbounds %struct.H5O_linfo_t, ptr %178, i32 0, i32 5
  store i64 -1, ptr %179, align 8
  br label %180

180:                                              ; preds = %177, %174, %148, %118, %95, %76, %33
  %181 = load i32, ptr %7, align 4
  ret i32 %181
}