; Function Attrs: nounwind uwtable
define range(i32 -1, 1) i32 @H5G__dense_delete(ptr noundef %0, ptr nocapture noundef %1, i1 noundef zeroext %2) local_unnamed_addr #0 {
  %4 = alloca %struct.H5G_bt2_ud_rm_t, align 8
  br i1 %2, label %5, label %39

5:                                                ; preds = %3
  %6 = getelementptr inbounds i8, ptr %1, i64 32
  %7 = load i64, ptr %6, align 8
  %8 = tail call ptr @H5HF_open(ptr noundef %0, i64 noundef %7) #8
  %9 = icmp eq ptr %8, null
  br i1 %9, label %10, label %14

10:                                               ; preds = %5
  %11 = load i64, ptr @H5E_SYM_g, align 8
  %12 = load i64, ptr @H5E_CANTOPENOBJ_g, align 8
  %13 = tail call i32 (ptr, ptr, i32, i64, i64, ptr, ...) @H5E_printf_stack(ptr noundef nonnull @.str, ptr noundef nonnull @__func__.H5G__dense_delete, i32 noundef 1599, i64 noundef %11, i64 noundef %12, ptr noundef nonnull @.str.15) #8
  br label %73

14:                                               ; preds = %5
  store ptr %0, ptr %4, align 8
  %15 = getelementptr inbounds i8, ptr %4, i64 8
  store ptr %8, ptr %15, align 8
  %16 = getelementptr inbounds i8, ptr %4, i64 16
  store ptr null, ptr %16, align 8
  %17 = getelementptr inbounds i8, ptr %4, i64 24
  store i32 0, ptr %17, align 8
  %18 = getelementptr inbounds i8, ptr %4, i64 40
  %19 = getelementptr inbounds i8, ptr %1, i64 16
  call void @llvm.memset.p0.i64(ptr noundef nonnull align 8 dereferenceable(17) %18, i8 0, i64 17, i1 false)
  %20 = load i64, ptr %19, align 8
  %21 = getelementptr inbounds i8, ptr %4, i64 64
  store i64 %20, ptr %21, align 8
  %22 = getelementptr inbounds i8, ptr %4, i64 72
  store ptr null, ptr %22, align 8
  %23 = getelementptr inbounds i8, ptr %4, i64 80
  store i8 0, ptr %23, align 8
  %24 = getelementptr inbounds i8, ptr %1, i64 40
  %25 = load i64, ptr %24, align 8
  %26 = call i32 @H5B2_delete(ptr noundef %0, i64 noundef %25, ptr noundef null, ptr noundef nonnull @H5G__dense_remove_bt2_cb, ptr noundef nonnull %4) #8
  %27 = icmp slt i32 %26, 0
  br i1 %27, label %28, label %32

28:                                               ; preds = %14
  %29 = load i64, ptr @H5E_SYM_g, align 8
  %30 = load i64, ptr @H5E_CANTDELETE_g, align 8
  %31 = call i32 (ptr, ptr, i32, i64, i64, ptr, ...) @H5E_printf_stack(ptr noundef nonnull @.str, ptr noundef nonnull @__func__.H5G__dense_delete, i32 noundef 1615, i64 noundef %29, i64 noundef %30, ptr noundef nonnull @.str.38) #8
  br label %73

32:                                               ; preds = %14
  %33 = call i32 @H5HF_close(ptr noundef nonnull %8) #8
  %34 = icmp slt i32 %33, 0
  br i1 %34, label %35, label %48

35:                                               ; preds = %32
  %36 = load i64, ptr @H5E_SYM_g, align 8
  %37 = load i64, ptr @H5E_CLOSEERROR_g, align 8
  %38 = call i32 (ptr, ptr, i32, i64, i64, ptr, ...) @H5E_printf_stack(ptr noundef nonnull @.str, ptr noundef nonnull @__func__.H5G__dense_delete, i32 noundef 1619, i64 noundef %36, i64 noundef %37, ptr noundef nonnull @.str.8) #8
  br label %73

39:                                               ; preds = %3
  %40 = getelementptr inbounds i8, ptr %1, i64 40
  %41 = load i64, ptr %40, align 8
  %42 = tail call i32 @H5B2_delete(ptr noundef %0, i64 noundef %41, ptr noundef null, ptr noundef null, ptr noundef null) #8
  %43 = icmp slt i32 %42, 0
  br i1 %43, label %44, label %48

44:                                               ; preds = %39
  %45 = load i64, ptr @H5E_SYM_g, align 8
  %46 = load i64, ptr @H5E_CANTDELETE_g, align 8
  %47 = tail call i32 (ptr, ptr, i32, i64, i64, ptr, ...) @H5E_printf_stack(ptr noundef nonnull @.str, ptr noundef nonnull @__func__.H5G__dense_delete, i32 noundef 1624, i64 noundef %45, i64 noundef %46, ptr noundef nonnull @.str.38) #8
  br label %73

48:                                               ; preds = %39, %32
  %49 = getelementptr inbounds i8, ptr %1, i64 40
  store i64 -1, ptr %49, align 8
  %50 = getelementptr inbounds i8, ptr %1, i64 1
  %51 = load i8, ptr %50, align 1
  %52 = trunc i8 %51 to i1
  br i1 %52, label %53, label %63

53:                                               ; preds = %48
  %54 = getelementptr inbounds i8, ptr %1, i64 16
  %55 = load i64, ptr %54, align 8
  %56 = call i32 @H5B2_delete(ptr noundef %0, i64 noundef %55, ptr noundef null, ptr noundef null, ptr noundef null) #8
  %57 = icmp slt i32 %56, 0
  br i1 %57, label %58, label %62

58:                                               ; preds = %53
  %59 = load i64, ptr @H5E_SYM_g, align 8
  %60 = load i64, ptr @H5E_CANTDELETE_g, align 8
  %61 = call i32 (ptr, ptr, i32, i64, i64, ptr, ...) @H5E_printf_stack(ptr noundef nonnull @.str, ptr noundef nonnull @__func__.H5G__dense_delete, i32 noundef 1633, i64 noundef %59, i64 noundef %60, ptr noundef nonnull @.str.39) #8
  br label %73

62:                                               ; preds = %53
  store i64 -1, ptr %54, align 8
  br label %63

63:                                               ; preds = %48, %62
  %64 = getelementptr inbounds i8, ptr %1, i64 32
  %65 = load i64, ptr %64, align 8
  %66 = call i32 @H5HF_delete(ptr noundef %0, i64 noundef %65) #8
  %67 = icmp slt i32 %66, 0
  br i1 %67, label %68, label %72

68:                                               ; preds = %63
  %69 = load i64, ptr @H5E_SYM_g, align 8
  %70 = load i64, ptr @H5E_CANTDELETE_g, align 8
  %71 = call i32 (ptr, ptr, i32, i64, i64, ptr, ...) @H5E_printf_stack(ptr noundef nonnull @.str, ptr noundef nonnull @__func__.H5G__dense_delete, i32 noundef 1641, i64 noundef %69, i64 noundef %70, ptr noundef nonnull @.str.40) #8
  br label %73

72:                                               ; preds = %63
  store i64 -1, ptr %64, align 8
  br label %73

73:                                               ; preds = %72, %68, %58, %44, %35, %28, %10
  %.0 = phi i32 [ -1, %10 ], [ -1, %28 ], [ -1, %35 ], [ -1, %58 ], [ -1, %68 ], [ 0, %72 ], [ -1, %44 ]
  ret i32 %.0
}